; Function Attrs: mustprogress uwtable
define internal void @_ZN12_GLOBAL__N_17gpu2matERKN2cv11_InputArrayERKNS0_12_OutputArrayE(ptr noundef nonnull align 8 dereferenceable(24) %0, ptr noundef nonnull align 8 dereferenceable(24) %1) #0 personality ptr @__gxx_personality_v0 {
  %3 = alloca %"class.cv::cuda::GpuMat", align 8
  %4 = alloca %"class.cv::Mat", align 8
  %5 = alloca %"class.cv::_OutputArray", align 8
  call void @llvm.lifetime.start.p0(i64 64, ptr nonnull %3) #11
  call void @_ZNK2cv11_InputArray9getGpuMatEv(ptr dead_on_unwind nonnull writable sret(%"class.cv::cuda::GpuMat") align 8 %3, ptr noundef nonnull align 8 dereferenceable(24) %0)
  %6 = getelementptr inbounds nuw i8, ptr %3, i64 8
  %7 = load i32, ptr %6, align 8, !tbaa !32
  %8 = getelementptr inbounds nuw i8, ptr %3, i64 4
  %9 = load i32, ptr %8, align 4, !tbaa !31
  %.sroa.2.0.insert.ext.i = zext i32 %9 to i64
  %.sroa.2.0.insert.shift.i = shl nuw i64 %.sroa.2.0.insert.ext.i, 32
  %.sroa.0.0.insert.ext.i = zext i32 %7 to i64
  %.sroa.0.0.insert.insert.i = or disjoint i64 %.sroa.2.0.insert.shift.i, %.sroa.0.0.insert.ext.i
  %10 = load i32, ptr %3, align 8, !tbaa !25
  %11 = and i32 %10, 4095
  invoke void @_ZNK2cv12_OutputArray6createENS_5Size_IiEEiibNS0_9DepthMaskE(ptr noundef nonnull align 8 dereferenceable(24) %1, i64 %.sroa.0.0.insert.insert.i, i32 noundef %11, i32 noundef -1, i1 noundef zeroext false, i32 noundef 0)
          to label %12 unwind label %26

12:                                               ; preds = %2
  call void @llvm.lifetime.start.p0(i64 96, ptr nonnull %4) #11
  %13 = invoke noundef i32 @_ZNK2cv11_InputArray4kindEv(ptr noundef nonnull align 8 dereferenceable(24) %1)
          to label %.noexc unwind label %28

.noexc:                                           ; preds = %12
  %14 = icmp eq i32 %13, 65536
  br i1 %14, label %15, label %18

15:                                               ; preds = %.noexc
  %16 = getelementptr inbounds nuw i8, ptr %1, i64 8
  %17 = load ptr, ptr %16, align 8, !tbaa !10, !noalias !55
  invoke void @_ZN2cv3MatC1ERKS0_(ptr noundef nonnull align 8 dereferenceable(96) %4, ptr noundef nonnull align 8 dereferenceable(96) %17)
          to label %19 unwind label %28

18:                                               ; preds = %.noexc
  invoke void @_ZNK2cv11_InputArray7getMat_Ei(ptr dead_on_unwind nonnull writable sret(%"class.cv::Mat") align 8 %4, ptr noundef nonnull align 8 dereferenceable(24) %1, i32 noundef -1)
          to label %19 unwind label %28

19:                                               ; preds = %18, %15
  call void @llvm.lifetime.start.p0(i64 24, ptr nonnull %5) #11
  %20 = getelementptr inbounds nuw i8, ptr %5, i64 8
  %21 = getelementptr inbounds nuw i8, ptr %5, i64 16
  store i64 0, ptr %21, align 8
  store i32 33619968, ptr %5, align 8, !tbaa !3
  store ptr %4, ptr %20, align 8, !tbaa !10
  invoke void @_ZNK2cv4cuda6GpuMat8downloadERKNS_12_OutputArrayE(ptr noundef nonnull align 8 dereferenceable(64) %3, ptr noundef nonnull align 8 dereferenceable(24) %5)
          to label %22 unwind label %30

22:                                               ; preds = %19
  call void @llvm.lifetime.end.p0(i64 24, ptr nonnull %5) #11
  call void @_ZN2cv3MatD1Ev(ptr noundef nonnull align 8 dereferenceable(96) %4) #11
  call void @llvm.lifetime.end.p0(i64 96, ptr nonnull %4) #11
  invoke void @_ZN2cv4cuda6GpuMat7releaseEv(ptr noundef nonnull align 8 dereferenceable(64) %3)
          to label %_ZN2cv4cuda6GpuMatD2Ev.exit unwind label %23

23:                                               ; preds = %22
  %24 = landingpad { ptr, i32 }
          catch ptr null
  %25 = extractvalue { ptr, i32 } %24, 0
  call void @__clang_call_terminate(ptr %25) #12
  unreachable

_ZN2cv4cuda6GpuMatD2Ev.exit:                      ; preds = %22
  call void @llvm.lifetime.end.p0(i64 64, ptr nonnull %3) #11
  ret void

26:                                               ; preds = %2
  %27 = landingpad { ptr, i32 }
          cleanup
  br label %33

28:                                               ; preds = %18, %15, %12
  %29 = landingpad { ptr, i32 }
          cleanup
  br label %32

30:                                               ; preds = %19
  %31 = landingpad { ptr, i32 }
          cleanup
  call void @llvm.lifetime.end.p0(i64 24, ptr nonnull %5) #11
  call void @_ZN2cv3MatD1Ev(ptr noundef nonnull align 8 dereferenceable(96) %4) #11
  br label %32

32:                                               ; preds = %30, %28
  %.pn.pn = phi { ptr, i32 } [ %31, %30 ], [ %29, %28 ]
  call void @llvm.lifetime.end.p0(i64 96, ptr nonnull %4) #11
  br label %33

33:                                               ; preds = %32, %26
  %.pn.pn.pn = phi { ptr, i32 } [ %.pn.pn, %32 ], [ %27, %26 ]
  invoke void @_ZN2cv4cuda6GpuMat7releaseEv(ptr noundef nonnull align 8 dereferenceable(64) %3)
          to label %_ZN2cv4cuda6GpuMatD2Ev.exit12 unwind label %34

34:                                               ; preds = %33
  %35 = landingpad { ptr, i32 }
          catch ptr null
  %36 = extractvalue { ptr, i32 } %35, 0
  call void @__clang_call_terminate(ptr %36) #12
  unreachable

_ZN2cv4cuda6GpuMatD2Ev.exit12:                    ; preds = %33
  call void @llvm.lifetime.end.p0(i64 64, ptr nonnull %3) #11
  resume { ptr, i32 } %.pn.pn.pn
}